; Function Attrs: nofree norecurse nosync nounwind memory(readwrite, inaccessiblemem: none) uwtable
define internal range(i32 0, 3) i32 @little2_toUtf16(ptr readnone captures(none) %0, ptr noundef captures(none) %1, ptr noundef %2, ptr noundef captures(none) %3, ptr noundef %4) #9 {
  %6 = load ptr, ptr %1, align 8, !tbaa !4
  %7 = ptrtoint ptr %2 to i64
  %8 = ptrtoint ptr %6 to i64
  %9 = sub i64 %7, %8
  %10 = and i64 %9, -2
  %11 = getelementptr inbounds i8, ptr %6, i64 %10
  %12 = load ptr, ptr %3, align 8, !tbaa !34
  %13 = ptrtoint ptr %4 to i64
  %14 = ptrtoint ptr %12 to i64
  %15 = sub i64 %13, %14
  %16 = icmp sgt i64 %10, %15
  br i1 %16, label %17, label %22

17:                                               ; preds = %5
  %18 = getelementptr inbounds i8, ptr %11, i64 -1
  %19 = load i8, ptr %18, align 1, !tbaa !9
  %20 = and i8 %19, -8
  %21 = icmp eq i8 %20, -40
  %spec.select.idx = select i1 %21, i64 -2, i64 0
  %spec.select = getelementptr inbounds i8, ptr %11, i64 %spec.select.idx
  %spec.select26 = zext i1 %21 to i32
  br label %22

22:                                               ; preds = %17, %5
  %.023 = phi ptr [ %11, %5 ], [ %spec.select, %17 ]
  %.0 = phi i32 [ 0, %5 ], [ %spec.select26, %17 ]
  %23 = icmp ult ptr %6, %.023
  br i1 %23, label %.lr.ph, label %.thread

.lr.ph:                                           ; preds = %22, %27
  %24 = phi ptr [ %29, %27 ], [ %12, %22 ]
  %25 = phi ptr [ %30, %27 ], [ %6, %22 ]
  %26 = icmp ult ptr %24, %4
  br i1 %26, label %27, label %.critedge

27:                                               ; preds = %.lr.ph
  %28 = load i16, ptr %25, align 1
  %29 = getelementptr inbounds nuw i8, ptr %24, i64 2
  store ptr %29, ptr %3, align 8, !tbaa !34
  store i16 %28, ptr %24, align 2, !tbaa !12
  %30 = getelementptr inbounds nuw i8, ptr %25, i64 2
  store ptr %30, ptr %1, align 8, !tbaa !4
  %31 = icmp ult ptr %30, %.023
  br i1 %31, label %.lr.ph, label %.thread, !llvm.loop !111

.critedge:                                        ; preds = %.lr.ph
  %32 = icmp eq ptr %24, %4
  br i1 %32, label %33, label %.thread

.thread:                                          ; preds = %27, %22, %.critedge
  br label %33

33:                                               ; preds = %.critedge, %.thread
  %.022 = phi i32 [ %.0, %.thread ], [ 2, %.critedge ]
  ret i32 %.022
}